target datalayout = "e-m:e-p270:32:32-p271:32:32-p272:64:64-i64:64-i128:128-f80:128-n8:16:32:64-S128"
target triple = "x86_64-pc-linux-gnu"

; Function Attrs: null_pointer_is_valid sspstrong uwtable
define internal zeroext i1 @test_nano(ptr noundef %0, ptr noundef %1, i32 noundef %2, ptr noundef %3) #0 {
  %5 = alloca i1, align 1
  %6 = alloca ptr, align 8
  %7 = alloca ptr, align 8
  %8 = alloca i32, align 4
  %9 = alloca ptr, align 8
  %10 = alloca i8, align 1
  %11 = alloca i32, align 4
  %12 = alloca i8, align 1
  %13 = alloca i8, align 1
  %14 = alloca i8, align 1
  %15 = alloca i8, align 1
  store ptr %0, ptr %6, align 8
  store ptr %1, ptr %7, align 8
  store i32 %2, ptr %8, align 4
  store ptr %3, ptr %9, align 8
  %16 = load ptr, ptr %7, align 8
  %17 = call i32 @tvb_captured_length(ptr noundef %16)
  %18 = icmp ult i32 %17, 8
  br i1 %18, label %19, label %20

19:                                               ; preds = %4
  store i1 false, ptr %5, align 1
  br label %75

20:                                               ; preds = %4
  %21 = load ptr, ptr %7, align 8
  %22 = call zeroext i8 @tvb_get_uint8(ptr noundef %21, i32 noundef 0)
  %23 = zext i8 %22 to i32
  %24 = icmp ne i32 %23, 82
  br i1 %24, label %25, label %26

25:                                               ; preds = %20
  store i1 false, ptr %5, align 1
  br label %75

26:                                               ; preds = %20
  call void @llvm.lifetime.start.p0(i64 1, ptr %10) #8
  %27 = load ptr, ptr %7, align 8
  %28 = call zeroext i8 @tvb_get_uint8(ptr noundef %27, i32 noundef 1)
  store i8 %28, ptr %10, align 1
  %29 = load i8, ptr %10, align 1
  %30 = sext i8 %29 to i32
  %31 = icmp ne i32 %30, 65
  br i1 %31, label %32, label %41

32:                                               ; preds = %26
  %33 = load i8, ptr %10, align 1
  %34 = sext i8 %33 to i32
  %35 = icmp ne i32 %34, 66
  br i1 %35, label %36, label %41

36:                                               ; preds = %32
  %37 = load i8, ptr %10, align 1
  %38 = sext i8 %37 to i32
  %39 = icmp ne i32 %38, 67
  br i1 %39, label %40, label %41

40:                                               ; preds = %36
  store i1 false, ptr %5, align 1
  store i32 1, ptr %11, align 4
  br label %74

41:                                               ; preds = %36, %32, %26
  call void @llvm.lifetime.start.p0(i64 1, ptr %12) #8
  %42 = load ptr, ptr %7, align 8
  %43 = call zeroext i8 @tvb_get_uint8(ptr noundef %42, i32 noundef 2)
  store i8 %43, ptr %12, align 1
  call void @llvm.lifetime.start.p0(i64 1, ptr %13) #8
  %44 = load ptr, ptr %7, align 8
  %45 = call zeroext i8 @tvb_get_uint8(ptr noundef %44, i32 noundef 3)
  store i8 %45, ptr %13, align 1
  call void @llvm.lifetime.start.p0(i64 1, ptr %14) #8
  %46 = load ptr, ptr %7, align 8
  %47 = call zeroext i8 @tvb_get_uint8(ptr noundef %46, i32 noundef 4)
  store i8 %47, ptr %14, align 1
  %48 = load i8, ptr %12, align 1
  %49 = zext i8 %48 to i32
  %50 = icmp sgt i32 %49, 30
  br i1 %50, label %63, label %51

51:                                               ; preds = %41
  %52 = load i8, ptr %12, align 1
  %53 = zext i8 %52 to i32
  %54 = load i8, ptr %13, align 1
  %55 = zext i8 %54 to i32
  %56 = icmp slt i32 %53, %55
  br i1 %56, label %63, label %57

57:                                               ; preds = %51
  %58 = load i8, ptr %13, align 1
  %59 = zext i8 %58 to i32
  %60 = load i8, ptr %14, align 1
  %61 = zext i8 %60 to i32
  %62 = icmp slt i32 %59, %61
  br i1 %62, label %63, label %64

63:                                               ; preds = %57, %51, %41
  store i1 false, ptr %5, align 1
  store i32 1, ptr %11, align 4
  br label %73

64:                                               ; preds = %57
  call void @llvm.lifetime.start.p0(i64 1, ptr %15) #8
  %65 = load ptr, ptr %7, align 8
  %66 = call zeroext i8 @tvb_get_uint8(ptr noundef %65, i32 noundef 5)
  store i8 %66, ptr %15, align 1
  %67 = load i8, ptr %15, align 1
  %68 = zext i8 %67 to i32
  %69 = icmp sgt i32 %68, 15
  br i1 %69, label %70, label %71

70:                                               ; preds = %64
  store i1 false, ptr %5, align 1
  store i32 1, ptr %11, align 4
  br label %72

71:                                               ; preds = %64
  store i1 true, ptr %5, align 1
  store i32 1, ptr %11, align 4
  br label %72

72:                                               ; preds = %71, %70
  call void @llvm.lifetime.end.p0(i64 1, ptr %15) #8
  br label %73

73:                                               ; preds = %72, %63
  call void @llvm.lifetime.end.p0(i64 1, ptr %14) #8
  call void @llvm.lifetime.end.p0(i64 1, ptr %13) #8
  call void @llvm.lifetime.end.p0(i64 1, ptr %12) #8
  br label %74

74:                                               ; preds = %73, %40
  call void @llvm.lifetime.end.p0(i64 1, ptr %10) #8
  br label %75

75:                                               ; preds = %74, %25, %19
  %76 = load i1, ptr %5, align 1
  ret i1 %76
}