; Function Attrs: null_pointer_is_valid sspstrong uwtable
define internal fastcc zeroext i1 @test_nano(ptr noundef %0) unnamed_addr #0 {
  %2 = tail call i32 @tvb_captured_length(ptr noundef %0)
  %3 = icmp ult i32 %2, 8
  br i1 %3, label %19, label %4

4:                                                ; preds = %1
  %5 = tail call zeroext i8 @tvb_get_uint8(ptr noundef %0, i32 noundef 0)
  %.not = icmp eq i8 %5, 82
  br i1 %.not, label %6, label %19

6:                                                ; preds = %4
  %7 = tail call zeroext i8 @tvb_get_uint8(ptr noundef %0, i32 noundef 1)
  %8 = add i8 %7, -68
  %or.cond5 = icmp ult i8 %8, -3
  br i1 %or.cond5, label %19, label %9

9:                                                ; preds = %6
  %10 = tail call zeroext i8 @tvb_get_uint8(ptr noundef %0, i32 noundef 2)
  %11 = tail call zeroext i8 @tvb_get_uint8(ptr noundef %0, i32 noundef 3)
  %12 = tail call zeroext i8 @tvb_get_uint8(ptr noundef %0, i32 noundef 4)
  %13 = icmp ugt i8 %10, 30
  %14 = icmp ult i8 %10, %11
  %or.cond = select i1 %13, i1 true, i1 %14
  %15 = icmp ult i8 %11, %12
  %or.cond23 = select i1 %or.cond, i1 true, i1 %15
  br i1 %or.cond23, label %19, label %16

16:                                               ; preds = %9
  %17 = tail call zeroext i8 @tvb_get_uint8(ptr noundef %0, i32 noundef 5)
  %18 = icmp ult i8 %17, 16
  br label %19

19:                                               ; preds = %6, %9, %16, %4, %1
  %.0 = phi i1 [ false, %1 ], [ false, %4 ], [ false, %6 ], [ %18, %16 ], [ false, %9 ]
  ret i1 %.0
}